target datalayout = "e-m:e-p270:32:32-p271:32:32-p272:64:64-i64:64-i128:128-f80:128-n8:16:32:64-S128"
target triple = "x86_64-pc-linux-gnu"

%struct.If_DsdMan_t_ = type { ptr, i32, i32, i32, i32, ptr, ptr, %struct.Vec_Ptr_t_, %struct.Vec_Int_t_, %struct.Vec_Int_t_, ptr, ptr, ptr, [16 x ptr], [16 x ptr], [16 x ptr], [16 x ptr], i32, i32, ptr, ptr, ptr, ptr, ptr, i32, i32, i32, i32, i64, i64, i64, i64, i64 }
%struct.Vec_Ptr_t_ = type { i32, i32, ptr }
%struct.Vec_Int_t_ = type { i32, i32, ptr }
%struct.If_DsdObj_t_ = type { i32, i32, [0 x i32] }

; Function Attrs: inlinehint nounwind uwtable
define internal i32 @Vec_IntEntry(ptr noundef %0, i32 noundef %1) #1 {
  %3 = alloca ptr, align 8
  %4 = alloca i32, align 4
  store ptr %0, ptr %3, align 8, !tbaa !47
  store i32 %1, ptr %4, align 4, !tbaa !27
  %5 = load ptr, ptr %3, align 8, !tbaa !47
  %6 = getelementptr inbounds nuw %struct.Vec_Int_t_, ptr %5, i32 0, i32 2
  %7 = load ptr, ptr %6, align 8, !tbaa !50
  %8 = load i32, ptr %4, align 4, !tbaa !27
  %9 = sext i32 %8 to i64
  %10 = getelementptr inbounds i32, ptr %7, i64 %9
  %11 = load i32, ptr %10, align 4, !tbaa !27
  ret i32 %11
}

; Function Attrs: inlinehint nounwind uwtable
define internal ptr @Vec_PtrEntry(ptr noundef %0, i32 noundef %1) #1 {
  %3 = alloca ptr, align 8
  %4 = alloca i32, align 4
  store ptr %0, ptr %3, align 8, !tbaa !22
  store i32 %1, ptr %4, align 4, !tbaa !27
  %5 = load ptr, ptr %3, align 8, !tbaa !22
  %6 = getelementptr inbounds nuw %struct.Vec_Ptr_t_, ptr %5, i32 0, i32 2
  %7 = load ptr, ptr %6, align 8, !tbaa !46
  %8 = load i32, ptr %4, align 4, !tbaa !27
  %9 = sext i32 %8 to i64
  %10 = getelementptr inbounds ptr, ptr %7, i64 %9
  %11 = load ptr, ptr %10, align 8, !tbaa !44
  ret ptr %11
}

; Function Attrs: inlinehint nounwind uwtable
define internal ptr @Vec_IntEntryP(ptr noundef %0, i32 noundef %1) #1 {
  %3 = alloca ptr, align 8
  %4 = alloca i32, align 4
  store ptr %0, ptr %3, align 8, !tbaa !47
  store i32 %1, ptr %4, align 4, !tbaa !27
  %5 = load ptr, ptr %3, align 8, !tbaa !47
  %6 = getelementptr inbounds nuw %struct.Vec_Int_t_, ptr %5, i32 0, i32 2
  %7 = load ptr, ptr %6, align 8, !tbaa !50
  %8 = load i32, ptr %4, align 4, !tbaa !27
  %9 = sext i32 %8 to i64
  %10 = getelementptr inbounds i32, ptr %7, i64 %9
  ret ptr %10
}

; Function Attrs: inlinehint nounwind uwtable
define internal i32 @If_DsdObjTruthId(ptr noundef %0, ptr noundef %1) #1 {
  %3 = alloca ptr, align 8
  %4 = alloca ptr, align 8
  store ptr %0, ptr %3, align 8, !tbaa !3
  store ptr %1, ptr %4, align 8, !tbaa !40
  %5 = load ptr, ptr %4, align 8, !tbaa !40
  %6 = getelementptr inbounds nuw %struct.If_DsdObj_t_, ptr %5, i32 0, i32 1
  %7 = load i32, ptr %6, align 4
  %8 = and i32 %7, 7
  %9 = icmp eq i32 %8, 6
  br i1 %9, label %10, label %23

10:                                               ; preds = %2
  %11 = load ptr, ptr %4, align 8, !tbaa !40
  %12 = getelementptr inbounds nuw %struct.If_DsdObj_t_, ptr %11, i32 0, i32 1
  %13 = load i32, ptr %12, align 4
  %14 = lshr i32 %13, 27
  %15 = icmp sgt i32 %14, 2
  br i1 %15, label %16, label %23

16:                                               ; preds = %10
  %17 = load ptr, ptr %3, align 8, !tbaa !3
  %18 = getelementptr inbounds nuw %struct.If_DsdMan_t_, ptr %17, i32 0, i32 9
  %19 = load ptr, ptr %4, align 8, !tbaa !40
  %20 = getelementptr inbounds nuw %struct.If_DsdObj_t_, ptr %19, i32 0, i32 0
  %21 = load i32, ptr %20, align 4, !tbaa !42
  %22 = call i32 @Vec_IntEntry(ptr noundef %18, i32 noundef %21)
  br label %24

23:                                               ; preds = %10, %2
  br label %24

24:                                               ; preds = %23, %16
  %25 = phi i32 [ %22, %16 ], [ -1, %23 ]
  ret i32 %25
}

; Function Attrs: inlinehint nounwind uwtable
define internal i32 @If_DsdObjFaninNum(ptr noundef %0) #1 {
  %2 = alloca ptr, align 8
  store ptr %0, ptr %2, align 8, !tbaa !40
  %3 = load ptr, ptr %2, align 8, !tbaa !40
  %4 = getelementptr inbounds nuw %struct.If_DsdObj_t_, ptr %3, i32 0, i32 1
  %5 = load i32, ptr %4, align 4
  %6 = lshr i32 %5, 27
  ret i32 %6
}

; Function Attrs: inlinehint nounwind uwtable
define internal i32 @If_DsdObjType(ptr noundef %0) #1 {
  %2 = alloca ptr, align 8
  store ptr %0, ptr %2, align 8, !tbaa !40
  %3 = load ptr, ptr %2, align 8, !tbaa !40
  %4 = getelementptr inbounds nuw %struct.If_DsdObj_t_, ptr %3, i32 0, i32 1
  %5 = load i32, ptr %4, align 4
  %6 = and i32 %5, 7
  ret i32 %6
}

; Function Attrs: inlinehint nounwind uwtable
define internal ptr @If_DsdVecObj(ptr noundef %0, i32 noundef %1) #1 {
  %3 = alloca ptr, align 8
  %4 = alloca i32, align 4
  store ptr %0, ptr %3, align 8, !tbaa !22
  store i32 %1, ptr %4, align 4, !tbaa !27
  %5 = load ptr, ptr %3, align 8, !tbaa !22
  %6 = load i32, ptr %4, align 4, !tbaa !27
  %7 = call ptr @Vec_PtrEntry(ptr noundef %5, i32 noundef %6)
  ret ptr %7
}

; Function Attrs: inlinehint nounwind uwtable
define internal i32 @If_DsdObjHashKey(ptr noundef %0, i32 noundef %1, ptr noundef %2, i32 noundef %3, i32 noundef %4) #1 {
  %6 = alloca ptr, align 8
  %7 = alloca i32, align 4
  %8 = alloca ptr, align 8
  %9 = alloca i32, align 4
  %10 = alloca i32, align 4
  %11 = alloca i32, align 4
  %12 = alloca i32, align 4
  store ptr %0, ptr %6, align 8, !tbaa !3
  store i32 %1, ptr %7, align 4, !tbaa !27
  store ptr %2, ptr %8, align 8, !tbaa !60
  store i32 %3, ptr %9, align 4, !tbaa !27
  store i32 %4, ptr %10, align 4, !tbaa !27
  call void @llvm.lifetime.start.p0(i64 4, ptr %11) #15
  call void @llvm.lifetime.start.p0(i64 4, ptr %12) #15
  %13 = load i32, ptr %7, align 4, !tbaa !27
  %14 = mul nsw i32 %13, 7873
  %15 = load i32, ptr %9, align 4, !tbaa !27
  %16 = mul nsw i32 %15, 8147
  %17 = add nsw i32 %14, %16
  store i32 %17, ptr %12, align 4, !tbaa !27
  store i32 0, ptr %11, align 4, !tbaa !27
  br label %18

18:                                               ; preds = %36, %5
  %19 = load i32, ptr %11, align 4, !tbaa !27
  %20 = load i32, ptr %9, align 4, !tbaa !27
  %21 = icmp slt i32 %19, %20
  br i1 %21, label %22, label %39

22:                                               ; preds = %18
  %23 = load ptr, ptr %8, align 8, !tbaa !60
  %24 = load i32, ptr %11, align 4, !tbaa !27
  %25 = sext i32 %24 to i64
  %26 = getelementptr inbounds i32, ptr %23, i64 %25
  %27 = load i32, ptr %26, align 4, !tbaa !27
  %28 = load i32, ptr %11, align 4, !tbaa !27
  %29 = and i32 %28, 15
  %30 = sext i32 %29 to i64
  %31 = getelementptr inbounds [24 x i32], ptr @If_DsdObjHashKey.s_Primes, i64 0, i64 %30
  %32 = load i32, ptr %31, align 4, !tbaa !27
  %33 = mul nsw i32 %27, %32
  %34 = load i32, ptr %12, align 4, !tbaa !27
  %35 = add i32 %34, %33
  store i32 %35, ptr %12, align 4, !tbaa !27
  br label %36

36:                                               ; preds = %22
  %37 = load i32, ptr %11, align 4, !tbaa !27
  %38 = add nsw i32 %37, 1
  store i32 %38, ptr %11, align 4, !tbaa !27
  br label %18, !llvm.loop !164

39:                                               ; preds = %18
  %40 = load i32, ptr %7, align 4, !tbaa !27
  %41 = icmp eq i32 %40, 6
  br i1 %41, label %42, label %52

42:                                               ; preds = %39
  %43 = load i32, ptr %10, align 4, !tbaa !27
  %44 = load i32, ptr %11, align 4, !tbaa !27
  %45 = and i32 %44, 15
  %46 = sext i32 %45 to i64
  %47 = getelementptr inbounds [24 x i32], ptr @If_DsdObjHashKey.s_Primes, i64 0, i64 %46
  %48 = load i32, ptr %47, align 4, !tbaa !27
  %49 = mul nsw i32 %43, %48
  %50 = load i32, ptr %12, align 4, !tbaa !27
  %51 = add i32 %50, %49
  store i32 %51, ptr %12, align 4, !tbaa !27
  br label %52

52:                                               ; preds = %42, %39
  %53 = load i32, ptr %12, align 4, !tbaa !27
  %54 = load ptr, ptr %6, align 8, !tbaa !3
  %55 = getelementptr inbounds nuw %struct.If_DsdMan_t_, ptr %54, i32 0, i32 4
  %56 = load i32, ptr %55, align 4, !tbaa !52
  %57 = urem i32 %53, %56
  call void @llvm.lifetime.end.p0(i64 4, ptr %12) #15
  call void @llvm.lifetime.end.p0(i64 4, ptr %11) #15
  ret i32 %57
}

; Function Attrs: nounwind uwtable
define ptr @If_DsdObjHashLookup(ptr noundef %0, i32 noundef %1, ptr noundef %2, i32 noundef %3, i32 noundef %4) #0 {
  %6 = alloca ptr, align 8
  %7 = alloca ptr, align 8
  %8 = alloca i32, align 4
  %9 = alloca ptr, align 8
  %10 = alloca i32, align 4
  %11 = alloca i32, align 4
  %12 = alloca ptr, align 8
  %13 = alloca ptr, align 8
  %14 = alloca i32, align 4
  store ptr %0, ptr %7, align 8, !tbaa !3
  store i32 %1, ptr %8, align 4, !tbaa !27
  store ptr %2, ptr %9, align 8, !tbaa !60
  store i32 %3, ptr %10, align 4, !tbaa !27
  store i32 %4, ptr %11, align 4, !tbaa !27
  call void @llvm.lifetime.start.p0(i64 8, ptr %12) #15
  call void @llvm.lifetime.start.p0(i64 8, ptr %13) #15
  %15 = load ptr, ptr %7, align 8, !tbaa !3
  %16 = getelementptr inbounds nuw %struct.If_DsdMan_t_, ptr %15, i32 0, i32 5
  %17 = load ptr, ptr %16, align 8, !tbaa !53
  %18 = load ptr, ptr %7, align 8, !tbaa !3
  %19 = load i32, ptr %8, align 4, !tbaa !27
  %20 = load ptr, ptr %9, align 8, !tbaa !60
  %21 = load i32, ptr %10, align 4, !tbaa !27
  %22 = load i32, ptr %11, align 4, !tbaa !27
  %23 = call i32 @If_DsdObjHashKey(ptr noundef %18, i32 noundef %19, ptr noundef %20, i32 noundef %21, i32 noundef %22)
  %24 = zext i32 %23 to i64
  %25 = getelementptr inbounds nuw i32, ptr %17, i64 %24
  store ptr %25, ptr %13, align 8, !tbaa !60
  br label %26

26:                                               ; preds = %69, %5
  %27 = load ptr, ptr %13, align 8, !tbaa !60
  %28 = load i32, ptr %27, align 4, !tbaa !27
  %29 = icmp ne i32 %28, 0
  br i1 %29, label %30, label %76

30:                                               ; preds = %26
  %31 = load ptr, ptr %7, align 8, !tbaa !3
  %32 = getelementptr inbounds nuw %struct.If_DsdMan_t_, ptr %31, i32 0, i32 7
  %33 = load ptr, ptr %13, align 8, !tbaa !60
  %34 = load i32, ptr %33, align 4, !tbaa !27
  %35 = call ptr @If_DsdVecObj(ptr noundef %32, i32 noundef %34)
  store ptr %35, ptr %12, align 8, !tbaa !40
  %36 = load ptr, ptr %12, align 8, !tbaa !40
  %37 = call i32 @If_DsdObjType(ptr noundef %36)
  %38 = load i32, ptr %8, align 4, !tbaa !27
  %39 = icmp eq i32 %37, %38
  br i1 %39, label %40, label %68

40:                                               ; preds = %30
  %41 = load ptr, ptr %12, align 8, !tbaa !40
  %42 = call i32 @If_DsdObjFaninNum(ptr noundef %41)
  %43 = load i32, ptr %10, align 4, !tbaa !27
  %44 = icmp eq i32 %42, %43
  br i1 %44, label %45, label %68

45:                                               ; preds = %40
  %46 = load ptr, ptr %12, align 8, !tbaa !40
  %47 = getelementptr inbounds nuw %struct.If_DsdObj_t_, ptr %46, i32 0, i32 2
  %48 = getelementptr inbounds [0 x i32], ptr %47, i64 0, i64 0
  %49 = load ptr, ptr %9, align 8, !tbaa !60
  %50 = load ptr, ptr %12, align 8, !tbaa !40
  %51 = call i32 @If_DsdObjFaninNum(ptr noundef %50)
  %52 = sext i32 %51 to i64
  %53 = mul i64 4, %52
  %54 = call i32 @memcmp(ptr noundef %48, ptr noundef %49, i64 noundef %53) #17
  %55 = icmp ne i32 %54, 0
  br i1 %55, label %68, label %56

56:                                               ; preds = %45
  %57 = load i32, ptr %11, align 4, !tbaa !27
  %58 = load ptr, ptr %7, align 8, !tbaa !3
  %59 = load ptr, ptr %12, align 8, !tbaa !40
  %60 = call i32 @If_DsdObjTruthId(ptr noundef %58, ptr noundef %59)
  %61 = icmp eq i32 %57, %60
  br i1 %61, label %62, label %68

62:                                               ; preds = %56
  %63 = load ptr, ptr %7, align 8, !tbaa !3
  %64 = getelementptr inbounds nuw %struct.If_DsdMan_t_, ptr %63, i32 0, i32 26
  %65 = load i32, ptr %64, align 8, !tbaa !98
  %66 = add nsw i32 %65, 1
  store i32 %66, ptr %64, align 8, !tbaa !98
  %67 = load ptr, ptr %13, align 8, !tbaa !60
  store ptr %67, ptr %6, align 8
  store i32 1, ptr %14, align 4
  br label %82

68:                                               ; preds = %56, %45, %40, %30
  br label %69

69:                                               ; preds = %68
  %70 = load ptr, ptr %7, align 8, !tbaa !3
  %71 = getelementptr inbounds nuw %struct.If_DsdMan_t_, ptr %70, i32 0, i32 8
  %72 = load ptr, ptr %12, align 8, !tbaa !40
  %73 = getelementptr inbounds nuw %struct.If_DsdObj_t_, ptr %72, i32 0, i32 0
  %74 = load i32, ptr %73, align 4, !tbaa !42
  %75 = call ptr @Vec_IntEntryP(ptr noundef %71, i32 noundef %74)
  store ptr %75, ptr %13, align 8, !tbaa !60
  br label %26, !llvm.loop !163

76:                                               ; preds = %26
  %77 = load ptr, ptr %7, align 8, !tbaa !3
  %78 = getelementptr inbounds nuw %struct.If_DsdMan_t_, ptr %77, i32 0, i32 27
  %79 = load i32, ptr %78, align 4, !tbaa !97
  %80 = add nsw i32 %79, 1
  store i32 %80, ptr %78, align 4, !tbaa !97
  %81 = load ptr, ptr %13, align 8, !tbaa !60
  store ptr %81, ptr %6, align 8
  store i32 1, ptr %14, align 4
  br label %82

82:                                               ; preds = %76, %62
  call void @llvm.lifetime.end.p0(i64 8, ptr %13) #15
  call void @llvm.lifetime.end.p0(i64 8, ptr %12) #15
  %83 = load ptr, ptr %6, align 8
  ret ptr %83
}