; Function Attrs: nofree nounwind memory(read, argmem: readwrite, inaccessiblemem: none) uwtable
define noundef ptr @If_DsdObjHashLookup(ptr noundef captures(none) %0, i32 noundef %1, ptr noundef readonly captures(none) %2, i32 noundef %3, i32 noundef %4) local_unnamed_addr #18 {
  %6 = getelementptr inbounds nuw i8, ptr %0, i64 24
  %7 = load ptr, ptr %6, align 8, !tbaa !46
  %8 = mul nsw i32 %1, 7873
  %9 = mul nsw i32 %3, 8147
  %10 = add nsw i32 %9, %8
  %11 = icmp sgt i32 %3, 0
  br i1 %11, label %.lr.ph.preheader.i, label %._crit_edge.i

.lr.ph.preheader.i:                               ; preds = %5
  %wide.trip.count.i = zext nneg i32 %3 to i64
  br label %.lr.ph.i

.lr.ph.i:                                         ; preds = %.lr.ph.i, %.lr.ph.preheader.i
  %indvars.iv.i = phi i64 [ 0, %.lr.ph.preheader.i ], [ %indvars.iv.next.i, %.lr.ph.i ]
  %.016.i = phi i32 [ %10, %.lr.ph.preheader.i ], [ %18, %.lr.ph.i ]
  %12 = getelementptr inbounds nuw i32, ptr %2, i64 %indvars.iv.i
  %13 = load i32, ptr %12, align 4, !tbaa !40
  %14 = and i64 %indvars.iv.i, 15
  %15 = getelementptr inbounds nuw [24 x i32], ptr @If_DsdObjHashKey.s_Primes, i64 0, i64 %14
  %16 = load i32, ptr %15, align 4, !tbaa !40
  %17 = mul nsw i32 %16, %13
  %18 = add i32 %17, %.016.i
  %indvars.iv.next.i = add nuw nsw i64 %indvars.iv.i, 1
  %exitcond.not.i = icmp eq i64 %indvars.iv.next.i, %wide.trip.count.i
  br i1 %exitcond.not.i, label %._crit_edge.loopexit.i, label %.lr.ph.i, !llvm.loop !160

._crit_edge.loopexit.i:                           ; preds = %.lr.ph.i
  %19 = and i32 %3, 15
  %20 = zext nneg i32 %19 to i64
  br label %._crit_edge.i

._crit_edge.i:                                    ; preds = %._crit_edge.loopexit.i, %5
  %.014.lcssa.i = phi i64 [ 0, %5 ], [ %20, %._crit_edge.loopexit.i ]
  %.0.lcssa.i = phi i32 [ %10, %5 ], [ %18, %._crit_edge.loopexit.i ]
  %21 = icmp eq i32 %1, 6
  br i1 %21, label %22, label %If_DsdObjHashKey.exit

22:                                               ; preds = %._crit_edge.i
  %23 = getelementptr inbounds nuw [24 x i32], ptr @If_DsdObjHashKey.s_Primes, i64 0, i64 %.014.lcssa.i
  %24 = load i32, ptr %23, align 4, !tbaa !40
  %25 = mul nsw i32 %24, %4
  %26 = add i32 %25, %.0.lcssa.i
  br label %If_DsdObjHashKey.exit

If_DsdObjHashKey.exit:                            ; preds = %._crit_edge.i, %22
  %.1.i = phi i32 [ %26, %22 ], [ %.0.lcssa.i, %._crit_edge.i ]
  %27 = getelementptr inbounds nuw i8, ptr %0, i64 20
  %28 = load i32, ptr %27, align 4, !tbaa !45
  %29 = urem i32 %.1.i, %28
  %30 = zext i32 %29 to i64
  %31 = getelementptr inbounds nuw i32, ptr %7, i64 %30
  %32 = load i32, ptr %31, align 4, !tbaa !40
  %.not34 = icmp eq i32 %32, 0
  br i1 %.not34, label %._crit_edge, label %.lr.ph

.lr.ph:                                           ; preds = %If_DsdObjHashKey.exit
  %33 = getelementptr i8, ptr %0, i64 48
  %.val = load ptr, ptr %33, align 8, !tbaa !23
  %34 = getelementptr i8, ptr %0, i64 80
  %35 = getelementptr i8, ptr %0, i64 64
  %36 = shl nuw nsw i32 %3, 2
  %37 = zext nneg i32 %36 to i64
  br label %38

38:                                               ; preds = %.lr.ph, %63
  %39 = phi i32 [ %32, %.lr.ph ], [ %67, %63 ]
  %.035 = phi ptr [ %31, %.lr.ph ], [ %66, %63 ]
  %40 = sext i32 %39 to i64
  %41 = getelementptr inbounds ptr, ptr %.val, i64 %40
  %42 = load ptr, ptr %41, align 8, !tbaa !24
  %43 = getelementptr i8, ptr %42, i64 4
  %.val28 = load i32, ptr %43, align 4
  %44 = and i32 %.val28, 7
  %45 = icmp eq i32 %44, %1
  %46 = lshr i32 %.val28, 27
  %47 = icmp eq i32 %46, %3
  %or.cond = and i1 %45, %47
  br i1 %or.cond, label %48, label %63

48:                                               ; preds = %38
  %49 = getelementptr inbounds nuw i8, ptr %42, i64 8
  %bcmp = tail call i32 @bcmp(ptr nonnull %49, ptr %2, i64 %37)
  %.not27 = icmp eq i32 %bcmp, 0
  br i1 %.not27, label %50, label %63

50:                                               ; preds = %48
  %51 = icmp ugt i32 %.val28, 402653183
  %or.cond.i = and i1 %51, %21
  br i1 %or.cond.i, label %52, label %If_DsdObjTruthId.exit

52:                                               ; preds = %50
  %53 = load i32, ptr %42, align 4, !tbaa !34
  %.val.i = load ptr, ptr %34, align 8, !tbaa !39
  %54 = sext i32 %53 to i64
  %55 = getelementptr inbounds i32, ptr %.val.i, i64 %54
  %56 = load i32, ptr %55, align 4, !tbaa !40
  br label %If_DsdObjTruthId.exit

If_DsdObjTruthId.exit:                            ; preds = %50, %52
  %57 = phi i32 [ %56, %52 ], [ -1, %50 ]
  %58 = icmp eq i32 %4, %57
  br i1 %58, label %59, label %63

59:                                               ; preds = %If_DsdObjTruthId.exit
  %60 = getelementptr inbounds nuw i8, ptr %0, i64 680
  %61 = load i32, ptr %60, align 8, !tbaa !122
  %62 = add nsw i32 %61, 1
  store i32 %62, ptr %60, align 8, !tbaa !122
  br label %71

63:                                               ; preds = %38, %48, %If_DsdObjTruthId.exit
  %64 = load i32, ptr %42, align 4, !tbaa !34
  %.val31 = load ptr, ptr %35, align 8, !tbaa !39
  %65 = sext i32 %64 to i64
  %66 = getelementptr inbounds i32, ptr %.val31, i64 %65
  %67 = load i32, ptr %66, align 4, !tbaa !40
  %.not = icmp eq i32 %67, 0
  br i1 %.not, label %._crit_edge, label %38, !llvm.loop !161

._crit_edge:                                      ; preds = %63, %If_DsdObjHashKey.exit
  %.0.lcssa = phi ptr [ %31, %If_DsdObjHashKey.exit ], [ %66, %63 ]
  %68 = getelementptr inbounds nuw i8, ptr %0, i64 684
  %69 = load i32, ptr %68, align 4, !tbaa !121
  %70 = add nsw i32 %69, 1
  store i32 %70, ptr %68, align 4, !tbaa !121
  br label %71

71:                                               ; preds = %._crit_edge, %59
  %.033 = phi ptr [ %.0.lcssa, %._crit_edge ], [ %.035, %59 ]
  ret ptr %.033
}